target datalayout = "e-m:e-p270:32:32-p271:32:32-p272:64:64-i64:64-i128:128-f80:128-n8:16:32:64-S128"
target triple = "x86_64-pc-linux-gnu"

%struct.Abc_Frame_t_ = type { ptr, ptr, ptr, ptr, ptr, ptr, ptr, ptr, ptr, ptr, i32, i32, i32, i32, i32, ptr, float, float, i32, i32, ptr, ptr, ptr, double, double, ptr, ptr, ptr, ptr, ptr, ptr, ptr, ptr, ptr, ptr, ptr, ptr, float, ptr, i32, ptr, ptr, ptr, ptr, ptr, i32, i32, i32, i32, i32, i32, ptr, ptr, ptr, ptr, ptr, ptr, i32, i32, ptr, ptr, ptr, ptr, ptr, ptr, ptr, ptr, ptr, ptr, ptr, ptr, ptr, ptr, ptr, ptr, ptr, ptr, ptr, ptr, ptr, ptr, ptr, ptr, ptr, ptr, ptr, ptr, ptr, ptr }

@.str.40 = private unnamed_addr constant [3 x i8] c"ch\00", align 1
@globalUtilOptind = external global i32, align 4
@.str.41 = private unnamed_addr constant [45 x i8] c"elapse: %3.2f seconds, total: %3.2f seconds\0A\00", align 1
@.str.42 = private unnamed_addr constant [19 x i8] c"usage: time [-ch]\0A\00", align 1
@.str.43 = private unnamed_addr constant [47 x i8] c"      \09\09print the runtime since the last call\0A\00", align 1
@.str.44 = private unnamed_addr constant [53 x i8] c"   -c \09\09clears the elapsed time without printing it\0A\00", align 1
@.str.45 = private unnamed_addr constant [33 x i8] c"   -h \09\09print the command usage\0A\00", align 1

; Function Attrs: nounwind uwtable
define internal i32 @CmdCommandTime(ptr noundef %0, i32 noundef %1, ptr noundef %2) #0 {
  %4 = alloca i32, align 4
  %5 = alloca ptr, align 8
  %6 = alloca i32, align 4
  %7 = alloca ptr, align 8
  %8 = alloca i32, align 4
  %9 = alloca i32, align 4
  store ptr %0, ptr %5, align 8
  store i32 %1, ptr %6, align 4
  store ptr %2, ptr %7, align 8
  store i32 0, ptr %9, align 4
  call void (...) @Extra_UtilGetoptReset()
  br label %10

10:                                               ; preds = %22, %3
  %11 = load i32, ptr %6, align 4
  %12 = load ptr, ptr %7, align 8
  %13 = call i32 @Extra_UtilGetopt(i32 noundef %11, ptr noundef %12, ptr noundef @.str.40)
  store i32 %13, ptr %8, align 4
  %14 = icmp ne i32 %13, -1
  br i1 %14, label %15, label %23

15:                                               ; preds = %10
  %16 = load i32, ptr %8, align 4
  switch i32 %16, label %21 [
    i32 99, label %17
    i32 104, label %20
  ]

17:                                               ; preds = %15
  %18 = load i32, ptr %9, align 4
  %19 = xor i32 %18, 1
  store i32 %19, ptr %9, align 4
  br label %22

20:                                               ; preds = %15
  br label %61

21:                                               ; preds = %15
  br label %61

22:                                               ; preds = %17
  br label %10, !llvm.loop !4

23:                                               ; preds = %10
  %24 = load i32, ptr %9, align 4
  %25 = icmp ne i32 %24, 0
  br i1 %25, label %26, label %36

26:                                               ; preds = %23
  %27 = load ptr, ptr %5, align 8
  %28 = getelementptr inbounds %struct.Abc_Frame_t_, ptr %27, i32 0, i32 23
  %29 = load double, ptr %28, align 8
  %30 = load ptr, ptr %5, align 8
  %31 = getelementptr inbounds %struct.Abc_Frame_t_, ptr %30, i32 0, i32 24
  %32 = load double, ptr %31, align 8
  %33 = fadd double %32, %29
  store double %33, ptr %31, align 8
  %34 = load ptr, ptr %5, align 8
  %35 = getelementptr inbounds %struct.Abc_Frame_t_, ptr %34, i32 0, i32 23
  store double 0.000000e+00, ptr %35, align 8
  store i32 0, ptr %4, align 4
  br label %78

36:                                               ; preds = %23
  %37 = load i32, ptr %6, align 4
  %38 = load i32, ptr @globalUtilOptind, align 4
  %39 = icmp ne i32 %37, %38
  br i1 %39, label %40, label %41

40:                                               ; preds = %36
  br label %61

41:                                               ; preds = %36
  %42 = load ptr, ptr %5, align 8
  %43 = getelementptr inbounds %struct.Abc_Frame_t_, ptr %42, i32 0, i32 23
  %44 = load double, ptr %43, align 8
  %45 = load ptr, ptr %5, align 8
  %46 = getelementptr inbounds %struct.Abc_Frame_t_, ptr %45, i32 0, i32 24
  %47 = load double, ptr %46, align 8
  %48 = fadd double %47, %44
  store double %48, ptr %46, align 8
  %49 = load ptr, ptr %5, align 8
  %50 = getelementptr inbounds %struct.Abc_Frame_t_, ptr %49, i32 0, i32 20
  %51 = load ptr, ptr %50, align 8
  %52 = load ptr, ptr %5, align 8
  %53 = getelementptr inbounds %struct.Abc_Frame_t_, ptr %52, i32 0, i32 23
  %54 = load double, ptr %53, align 8
  %55 = load ptr, ptr %5, align 8
  %56 = getelementptr inbounds %struct.Abc_Frame_t_, ptr %55, i32 0, i32 24
  %57 = load double, ptr %56, align 8
  %58 = call i32 (ptr, ptr, ...) @fprintf(ptr noundef %51, ptr noundef @.str.41, double noundef %54, double noundef %57) #9
  %59 = load ptr, ptr %5, align 8
  %60 = getelementptr inbounds %struct.Abc_Frame_t_, ptr %59, i32 0, i32 23
  store double 0.000000e+00, ptr %60, align 8
  store i32 0, ptr %4, align 4
  br label %78

61:                                               ; preds = %40, %21, %20
  %62 = load ptr, ptr %5, align 8
  %63 = getelementptr inbounds %struct.Abc_Frame_t_, ptr %62, i32 0, i32 21
  %64 = load ptr, ptr %63, align 8
  %65 = call i32 (ptr, ptr, ...) @fprintf(ptr noundef %64, ptr noundef @.str.42) #9
  %66 = load ptr, ptr %5, align 8
  %67 = getelementptr inbounds %struct.Abc_Frame_t_, ptr %66, i32 0, i32 21
  %68 = load ptr, ptr %67, align 8
  %69 = call i32 (ptr, ptr, ...) @fprintf(ptr noundef %68, ptr noundef @.str.43) #9
  %70 = load ptr, ptr %5, align 8
  %71 = getelementptr inbounds %struct.Abc_Frame_t_, ptr %70, i32 0, i32 21
  %72 = load ptr, ptr %71, align 8
  %73 = call i32 (ptr, ptr, ...) @fprintf(ptr noundef %72, ptr noundef @.str.44) #9
  %74 = load ptr, ptr %5, align 8
  %75 = getelementptr inbounds %struct.Abc_Frame_t_, ptr %74, i32 0, i32 21
  %76 = load ptr, ptr %75, align 8
  %77 = call i32 (ptr, ptr, ...) @fprintf(ptr noundef %76, ptr noundef @.str.45) #9
  store i32 1, ptr %4, align 4
  br label %78

78:                                               ; preds = %61, %41, %26
  %79 = load i32, ptr %4, align 4
  ret i32 %79
}