; Function Attrs: nounwind uwtable
define internal range(i32 0, 2) i32 @CmdCommandTime(ptr noundef captures(none) %0, i32 noundef %1, ptr noundef %2) #0 {
  tail call void (...) @Extra_UtilGetoptReset() #17
  br label %4

4:                                                ; preds = %6, %3
  %.0 = phi i32 [ 0, %3 ], [ %7, %6 ]
  %5 = tail call i32 @Extra_UtilGetopt(i32 noundef %1, ptr noundef %2, ptr noundef nonnull @.str.40) #17
  switch i32 %5, label %.loopexit [
    i32 -1, label %8
    i32 99, label %6
  ]

6:                                                ; preds = %4
  %7 = xor i32 %.0, 1
  br label %4, !llvm.loop !4

8:                                                ; preds = %4
  %.not21 = icmp eq i32 %.0, 0
  br i1 %.not21, label %15, label %9

9:                                                ; preds = %8
  %10 = getelementptr inbounds nuw i8, ptr %0, i64 152
  %11 = load double, ptr %10, align 8
  %12 = getelementptr inbounds nuw i8, ptr %0, i64 160
  %13 = load double, ptr %12, align 8
  %14 = fadd double %11, %13
  store double %14, ptr %12, align 8
  store double 0.000000e+00, ptr %10, align 8
  br label %35

15:                                               ; preds = %8
  %16 = load i32, ptr @globalUtilOptind, align 4
  %.not22 = icmp eq i32 %1, %16
  br i1 %.not22, label %17, label %.loopexit

17:                                               ; preds = %15
  %18 = getelementptr inbounds nuw i8, ptr %0, i64 152
  %19 = load double, ptr %18, align 8
  %20 = getelementptr inbounds nuw i8, ptr %0, i64 160
  %21 = load double, ptr %20, align 8
  %22 = fadd double %19, %21
  store double %22, ptr %20, align 8
  %23 = getelementptr inbounds nuw i8, ptr %0, i64 128
  %24 = load ptr, ptr %23, align 8
  %25 = tail call i32 (ptr, ptr, ...) @fprintf(ptr noundef %24, ptr noundef nonnull @.str.41, double noundef %19, double noundef %22) #17
  store double 0.000000e+00, ptr %18, align 8
  br label %35

.loopexit:                                        ; preds = %4, %15
  %26 = getelementptr inbounds nuw i8, ptr %0, i64 136
  %27 = load ptr, ptr %26, align 8
  %28 = tail call i64 @fwrite(ptr nonnull @.str.42, i64 18, i64 1, ptr %27)
  %29 = load ptr, ptr %26, align 8
  %30 = tail call i64 @fwrite(ptr nonnull @.str.43, i64 46, i64 1, ptr %29)
  %31 = load ptr, ptr %26, align 8
  %32 = tail call i64 @fwrite(ptr nonnull @.str.44, i64 52, i64 1, ptr %31)
  %33 = load ptr, ptr %26, align 8
  %34 = tail call i64 @fwrite(ptr nonnull @.str.45, i64 32, i64 1, ptr %33)
  br label %35

35:                                               ; preds = %.loopexit, %17, %9
  %.019 = phi i32 [ 1, %.loopexit ], [ 0, %9 ], [ 0, %17 ]
  ret i32 %.019
}